target datalayout = "e-m:e-p270:32:32-p271:32:32-p272:64:64-i64:64-i128:128-f80:128-n8:16:32:64-S128"
target triple = "x86_64-pc-linux-gnu"

%struct.CnvExtData = type { %struct.NewConverter, ptr, ptr, ptr, ptr, ptr, ptr, [1088 x i16], [64448 x i16], [262144 x i16], [65536 x i32], i32, i32, i32, i32, i16, i32, i32, i32, i32, i32, i32 }
%struct.NewConverter = type { ptr, ptr, ptr, ptr }

@stderr = external global ptr, align 8
@.str.11 = private unnamed_addr constant [43 x i8] c"error: too many stage 2 entries at U+%04x\0A\00", align 1
@.str.12 = private unnamed_addr constant [43 x i8] c"error: too many stage 3 entries at U+%04x\0A\00", align 1
@.str.13 = private unnamed_addr constant [44 x i8] c"error: too many stage 3b entries at U+%04x\0A\00", align 1

; Function Attrs: nounwind uwtable
define internal void @addFromUTrieEntry(ptr noundef %0, i32 noundef %1, i32 noundef %2) #0 {
  %4 = alloca ptr, align 8
  %5 = alloca i32, align 4
  %6 = alloca i32, align 4
  %7 = alloca i32, align 4
  %8 = alloca i32, align 4
  %9 = alloca i32, align 4
  %10 = alloca i32, align 4
  %11 = alloca i32, align 4
  %12 = alloca i32, align 4
  %13 = alloca i32, align 4
  %14 = alloca i32, align 4
  store ptr %0, ptr %4, align 8, !tbaa !9
  store i32 %1, ptr %5, align 4, !tbaa !30
  store i32 %2, ptr %6, align 4, !tbaa !30
  call void @llvm.lifetime.start.p0(i64 4, ptr %7) #9
  call void @llvm.lifetime.start.p0(i64 4, ptr %8) #9
  call void @llvm.lifetime.start.p0(i64 4, ptr %9) #9
  call void @llvm.lifetime.start.p0(i64 4, ptr %10) #9
  call void @llvm.lifetime.start.p0(i64 4, ptr %11) #9
  call void @llvm.lifetime.start.p0(i64 4, ptr %12) #9
  call void @llvm.lifetime.start.p0(i64 4, ptr %13) #9
  %15 = load i32, ptr %6, align 4, !tbaa !30
  %16 = icmp eq i32 %15, 0
  br i1 %16, label %17, label %18

17:                                               ; preds = %3
  store i32 1, ptr %14, align 4
  br label %273

18:                                               ; preds = %3
  %19 = load i32, ptr %5, align 4, !tbaa !30
  %20 = ashr i32 %19, 10
  store i32 %20, ptr %7, align 4, !tbaa !30
  %21 = load i32, ptr %7, align 4, !tbaa !30
  %22 = load ptr, ptr %4, align 8, !tbaa !9
  %23 = getelementptr inbounds nuw %struct.CnvExtData, ptr %22, i32 0, i32 11
  %24 = load i32, ptr %23, align 8, !tbaa !51
  %25 = icmp sge i32 %21, %24
  br i1 %25, label %26, label %31

26:                                               ; preds = %18
  %27 = load i32, ptr %7, align 4, !tbaa !30
  %28 = add nsw i32 %27, 1
  %29 = load ptr, ptr %4, align 8, !tbaa !9
  %30 = getelementptr inbounds nuw %struct.CnvExtData, ptr %29, i32 0, i32 11
  store i32 %28, ptr %30, align 8, !tbaa !51
  br label %31

31:                                               ; preds = %26, %18
  %32 = load i32, ptr %5, align 4, !tbaa !30
  %33 = ashr i32 %32, 4
  %34 = and i32 %33, 63
  store i32 %34, ptr %11, align 4, !tbaa !30
  %35 = load ptr, ptr %4, align 8, !tbaa !9
  %36 = getelementptr inbounds nuw %struct.CnvExtData, ptr %35, i32 0, i32 7
  %37 = load i32, ptr %7, align 4, !tbaa !30
  %38 = sext i32 %37 to i64
  %39 = getelementptr inbounds [1088 x i16], ptr %36, i64 0, i64 %38
  %40 = load i16, ptr %39, align 2, !tbaa !50
  %41 = zext i16 %40 to i32
  %42 = icmp eq i32 %41, 0
  br i1 %42, label %43, label %90

43:                                               ; preds = %31
  %44 = load ptr, ptr %4, align 8, !tbaa !9
  %45 = getelementptr inbounds nuw %struct.CnvExtData, ptr %44, i32 0, i32 12
  %46 = load i32, ptr %45, align 4, !tbaa !52
  store i32 %46, ptr %13, align 4, !tbaa !30
  %47 = load i32, ptr %13, align 4, !tbaa !30
  %48 = load i32, ptr %11, align 4, !tbaa !30
  %49 = sub nsw i32 %47, %48
  store i32 %49, ptr %12, align 4, !tbaa !30
  br label %50

50:                                               ; preds = %66, %43
  %51 = load i32, ptr %12, align 4, !tbaa !30
  %52 = load i32, ptr %13, align 4, !tbaa !30
  %53 = icmp slt i32 %51, %52
  br i1 %53, label %54, label %64

54:                                               ; preds = %50
  %55 = load ptr, ptr %4, align 8, !tbaa !9
  %56 = getelementptr inbounds nuw %struct.CnvExtData, ptr %55, i32 0, i32 8
  %57 = load i32, ptr %13, align 4, !tbaa !30
  %58 = sub nsw i32 %57, 1
  %59 = sext i32 %58 to i64
  %60 = getelementptr inbounds [64448 x i16], ptr %56, i64 0, i64 %59
  %61 = load i16, ptr %60, align 2, !tbaa !50
  %62 = zext i16 %61 to i32
  %63 = icmp eq i32 %62, 0
  br label %64

64:                                               ; preds = %54, %50
  %65 = phi i1 [ false, %50 ], [ %63, %54 ]
  br i1 %65, label %66, label %69

66:                                               ; preds = %64
  %67 = load i32, ptr %13, align 4, !tbaa !30
  %68 = add nsw i32 %67, -1
  store i32 %68, ptr %13, align 4, !tbaa !30
  br label %50, !llvm.loop !89

69:                                               ; preds = %64
  %70 = load i32, ptr %13, align 4, !tbaa !30
  %71 = trunc i32 %70 to i16
  %72 = load ptr, ptr %4, align 8, !tbaa !9
  %73 = getelementptr inbounds nuw %struct.CnvExtData, ptr %72, i32 0, i32 7
  %74 = load i32, ptr %7, align 4, !tbaa !30
  %75 = sext i32 %74 to i64
  %76 = getelementptr inbounds [1088 x i16], ptr %73, i64 0, i64 %75
  store i16 %71, ptr %76, align 2, !tbaa !50
  %77 = load i32, ptr %13, align 4, !tbaa !30
  %78 = add nsw i32 %77, 64
  %79 = load ptr, ptr %4, align 8, !tbaa !9
  %80 = getelementptr inbounds nuw %struct.CnvExtData, ptr %79, i32 0, i32 12
  store i32 %78, ptr %80, align 4, !tbaa !52
  %81 = load ptr, ptr %4, align 8, !tbaa !9
  %82 = getelementptr inbounds nuw %struct.CnvExtData, ptr %81, i32 0, i32 12
  %83 = load i32, ptr %82, align 4, !tbaa !52
  %84 = icmp sgt i32 %83, 64448
  br i1 %84, label %85, label %89

85:                                               ; preds = %69
  %86 = load ptr, ptr @stderr, align 8, !tbaa !39
  %87 = load i32, ptr %5, align 4, !tbaa !30
  %88 = call i32 (ptr, ptr, ...) @fprintf(ptr noundef %86, ptr noundef @.str.11, i32 noundef %87) #9
  call void @exit(i32 noundef 7) #11
  unreachable

89:                                               ; preds = %69
  br label %90

90:                                               ; preds = %89, %31
  %91 = load ptr, ptr %4, align 8, !tbaa !9
  %92 = getelementptr inbounds nuw %struct.CnvExtData, ptr %91, i32 0, i32 7
  %93 = load i32, ptr %7, align 4, !tbaa !30
  %94 = sext i32 %93 to i64
  %95 = getelementptr inbounds [1088 x i16], ptr %92, i64 0, i64 %94
  %96 = load i16, ptr %95, align 2, !tbaa !50
  %97 = zext i16 %96 to i32
  %98 = load i32, ptr %11, align 4, !tbaa !30
  %99 = add nsw i32 %97, %98
  store i32 %99, ptr %8, align 4, !tbaa !30
  %100 = load i32, ptr %5, align 4, !tbaa !30
  %101 = and i32 %100, 15
  store i32 %101, ptr %11, align 4, !tbaa !30
  %102 = load ptr, ptr %4, align 8, !tbaa !9
  %103 = getelementptr inbounds nuw %struct.CnvExtData, ptr %102, i32 0, i32 8
  %104 = load i32, ptr %8, align 4, !tbaa !30
  %105 = sext i32 %104 to i64
  %106 = getelementptr inbounds [64448 x i16], ptr %103, i64 0, i64 %105
  %107 = load i16, ptr %106, align 2, !tbaa !50
  %108 = zext i16 %107 to i32
  %109 = icmp eq i32 %108, 0
  br i1 %109, label %110, label %161

110:                                              ; preds = %90
  %111 = load ptr, ptr %4, align 8, !tbaa !9
  %112 = getelementptr inbounds nuw %struct.CnvExtData, ptr %111, i32 0, i32 13
  %113 = load i32, ptr %112, align 8, !tbaa !53
  store i32 %113, ptr %13, align 4, !tbaa !30
  %114 = load i32, ptr %13, align 4, !tbaa !30
  %115 = load i32, ptr %11, align 4, !tbaa !30
  %116 = sub nsw i32 %114, %115
  store i32 %116, ptr %12, align 4, !tbaa !30
  br label %117

117:                                              ; preds = %133, %110
  %118 = load i32, ptr %12, align 4, !tbaa !30
  %119 = load i32, ptr %13, align 4, !tbaa !30
  %120 = icmp slt i32 %118, %119
  br i1 %120, label %121, label %131

121:                                              ; preds = %117
  %122 = load ptr, ptr %4, align 8, !tbaa !9
  %123 = getelementptr inbounds nuw %struct.CnvExtData, ptr %122, i32 0, i32 9
  %124 = load i32, ptr %13, align 4, !tbaa !30
  %125 = sub nsw i32 %124, 1
  %126 = sext i32 %125 to i64
  %127 = getelementptr inbounds [262144 x i16], ptr %123, i64 0, i64 %126
  %128 = load i16, ptr %127, align 2, !tbaa !50
  %129 = zext i16 %128 to i32
  %130 = icmp eq i32 %129, 0
  br label %131

131:                                              ; preds = %121, %117
  %132 = phi i1 [ false, %117 ], [ %130, %121 ]
  br i1 %132, label %133, label %136

133:                                              ; preds = %131
  %134 = load i32, ptr %13, align 4, !tbaa !30
  %135 = add nsw i32 %134, -1
  store i32 %135, ptr %13, align 4, !tbaa !30
  br label %117, !llvm.loop !90

136:                                              ; preds = %131
  %137 = load i32, ptr %13, align 4, !tbaa !30
  %138 = add nsw i32 %137, 3
  %139 = and i32 %138, -4
  store i32 %139, ptr %13, align 4, !tbaa !30
  %140 = load i32, ptr %13, align 4, !tbaa !30
  %141 = ashr i32 %140, 2
  %142 = trunc i32 %141 to i16
  %143 = load ptr, ptr %4, align 8, !tbaa !9
  %144 = getelementptr inbounds nuw %struct.CnvExtData, ptr %143, i32 0, i32 8
  %145 = load i32, ptr %8, align 4, !tbaa !30
  %146 = sext i32 %145 to i64
  %147 = getelementptr inbounds [64448 x i16], ptr %144, i64 0, i64 %146
  store i16 %142, ptr %147, align 2, !tbaa !50
  %148 = load i32, ptr %13, align 4, !tbaa !30
  %149 = add nsw i32 %148, 16
  %150 = load ptr, ptr %4, align 8, !tbaa !9
  %151 = getelementptr inbounds nuw %struct.CnvExtData, ptr %150, i32 0, i32 13
  store i32 %149, ptr %151, align 8, !tbaa !53
  %152 = load ptr, ptr %4, align 8, !tbaa !9
  %153 = getelementptr inbounds nuw %struct.CnvExtData, ptr %152, i32 0, i32 13
  %154 = load i32, ptr %153, align 8, !tbaa !53
  %155 = icmp sgt i32 %154, 262144
  br i1 %155, label %156, label %160

156:                                              ; preds = %136
  %157 = load ptr, ptr @stderr, align 8, !tbaa !39
  %158 = load i32, ptr %5, align 4, !tbaa !30
  %159 = call i32 (ptr, ptr, ...) @fprintf(ptr noundef %157, ptr noundef @.str.12, i32 noundef %158) #9
  call void @exit(i32 noundef 7) #11
  unreachable

160:                                              ; preds = %136
  br label %161

161:                                              ; preds = %160, %90
  %162 = load ptr, ptr %4, align 8, !tbaa !9
  %163 = getelementptr inbounds nuw %struct.CnvExtData, ptr %162, i32 0, i32 8
  %164 = load i32, ptr %8, align 4, !tbaa !30
  %165 = sext i32 %164 to i64
  %166 = getelementptr inbounds [64448 x i16], ptr %163, i64 0, i64 %165
  %167 = load i16, ptr %166, align 2, !tbaa !50
  %168 = zext i16 %167 to i32
  %169 = shl i32 %168, 2
  %170 = load i32, ptr %11, align 4, !tbaa !30
  %171 = add nsw i32 %169, %170
  store i32 %171, ptr %9, align 4, !tbaa !30
  %172 = load i32, ptr %6, align 4, !tbaa !30
  %173 = icmp eq i32 %172, -2147483647
  br i1 %173, label %174, label %248

174:                                              ; preds = %161
  %175 = load ptr, ptr %4, align 8, !tbaa !9
  %176 = getelementptr inbounds nuw %struct.CnvExtData, ptr %175, i32 0, i32 9
  %177 = load i32, ptr %9, align 4, !tbaa !30
  %178 = sext i32 %177 to i64
  %179 = getelementptr inbounds [262144 x i16], ptr %176, i64 0, i64 %178
  store i16 1, ptr %179, align 2, !tbaa !50
  %180 = load i32, ptr %11, align 4, !tbaa !30
  %181 = icmp eq i32 %180, 15
  br i1 %181, label %182, label %247

182:                                              ; preds = %174
  %183 = load i32, ptr %9, align 4, !tbaa !30
  %184 = load i32, ptr %11, align 4, !tbaa !30
  %185 = sub nsw i32 %183, %184
  store i32 %185, ptr %12, align 4, !tbaa !30
  br label %186

186:                                              ; preds = %202, %182
  %187 = load i32, ptr %12, align 4, !tbaa !30
  %188 = load i32, ptr %9, align 4, !tbaa !30
  %189 = icmp slt i32 %187, %188
  br i1 %189, label %190, label %199

190:                                              ; preds = %186
  %191 = load ptr, ptr %4, align 8, !tbaa !9
  %192 = getelementptr inbounds nuw %struct.CnvExtData, ptr %191, i32 0, i32 9
  %193 = load i32, ptr %12, align 4, !tbaa !30
  %194 = sext i32 %193 to i64
  %195 = getelementptr inbounds [262144 x i16], ptr %192, i64 0, i64 %194
  %196 = load i16, ptr %195, align 2, !tbaa !50
  %197 = zext i16 %196 to i32
  %198 = icmp eq i32 %197, 1
  br label %199

199:                                              ; preds = %190, %186
  %200 = phi i1 [ false, %186 ], [ %198, %190 ]
  br i1 %200, label %201, label %205

201:                                              ; preds = %199
  br label %202

202:                                              ; preds = %201
  %203 = load i32, ptr %12, align 4, !tbaa !30
  %204 = add nsw i32 %203, 1
  store i32 %204, ptr %12, align 4, !tbaa !30
  br label %186, !llvm.loop !91

205:                                              ; preds = %199
  %206 = load i32, ptr %12, align 4, !tbaa !30
  %207 = load i32, ptr %9, align 4, !tbaa !30
  %208 = icmp eq i32 %206, %207
  br i1 %208, label %209, label %246

209:                                              ; preds = %205
  %210 = load ptr, ptr %4, align 8, !tbaa !9
  %211 = getelementptr inbounds nuw %struct.CnvExtData, ptr %210, i32 0, i32 15
  %212 = load i16, ptr %211, align 8, !tbaa !92
  %213 = zext i16 %212 to i32
  %214 = icmp ne i32 %213, 0
  br i1 %214, label %215, label %236

215:                                              ; preds = %209
  %216 = load ptr, ptr %4, align 8, !tbaa !9
  %217 = getelementptr inbounds nuw %struct.CnvExtData, ptr %216, i32 0, i32 15
  %218 = load i16, ptr %217, align 8, !tbaa !92
  %219 = load ptr, ptr %4, align 8, !tbaa !9
  %220 = getelementptr inbounds nuw %struct.CnvExtData, ptr %219, i32 0, i32 8
  %221 = load i32, ptr %8, align 4, !tbaa !30
  %222 = sext i32 %221 to i64
  %223 = getelementptr inbounds [64448 x i16], ptr %220, i64 0, i64 %222
  store i16 %218, ptr %223, align 2, !tbaa !50
  %224 = load ptr, ptr %4, align 8, !tbaa !9
  %225 = getelementptr inbounds nuw %struct.CnvExtData, ptr %224, i32 0, i32 13
  %226 = load i32, ptr %225, align 8, !tbaa !53
  %227 = sub nsw i32 %226, 16
  store i32 %227, ptr %225, align 8, !tbaa !53
  %228 = load ptr, ptr %4, align 8, !tbaa !9
  %229 = getelementptr inbounds nuw %struct.CnvExtData, ptr %228, i32 0, i32 9
  %230 = getelementptr inbounds [262144 x i16], ptr %229, i64 0, i64 0
  %231 = load ptr, ptr %4, align 8, !tbaa !9
  %232 = getelementptr inbounds nuw %struct.CnvExtData, ptr %231, i32 0, i32 13
  %233 = load i32, ptr %232, align 8, !tbaa !53
  %234 = sext i32 %233 to i64
  %235 = getelementptr inbounds i16, ptr %230, i64 %234
  call void @llvm.memset.p0.i64(ptr align 2 %235, i8 0, i64 32, i1 false)
  br label %245

236:                                              ; preds = %209
  %237 = load ptr, ptr %4, align 8, !tbaa !9
  %238 = getelementptr inbounds nuw %struct.CnvExtData, ptr %237, i32 0, i32 8
  %239 = load i32, ptr %8, align 4, !tbaa !30
  %240 = sext i32 %239 to i64
  %241 = getelementptr inbounds [64448 x i16], ptr %238, i64 0, i64 %240
  %242 = load i16, ptr %241, align 2, !tbaa !50
  %243 = load ptr, ptr %4, align 8, !tbaa !9
  %244 = getelementptr inbounds nuw %struct.CnvExtData, ptr %243, i32 0, i32 15
  store i16 %242, ptr %244, align 8, !tbaa !92
  br label %245

245:                                              ; preds = %236, %215
  br label %246

246:                                              ; preds = %245, %205
  br label %247

247:                                              ; preds = %246, %174
  br label %272

248:                                              ; preds = %161
  %249 = load ptr, ptr %4, align 8, !tbaa !9
  %250 = getelementptr inbounds nuw %struct.CnvExtData, ptr %249, i32 0, i32 14
  %251 = load i32, ptr %250, align 4, !tbaa !54
  %252 = add nsw i32 %251, 1
  store i32 %252, ptr %250, align 4, !tbaa !54
  store i32 %251, ptr %10, align 4, !tbaa !30
  %253 = icmp sge i32 %251, 65536
  br i1 %253, label %254, label %258

254:                                              ; preds = %248
  %255 = load ptr, ptr @stderr, align 8, !tbaa !39
  %256 = load i32, ptr %5, align 4, !tbaa !30
  %257 = call i32 (ptr, ptr, ...) @fprintf(ptr noundef %255, ptr noundef @.str.13, i32 noundef %256) #9
  call void @exit(i32 noundef 7) #11
  unreachable

258:                                              ; preds = %248
  %259 = load i32, ptr %10, align 4, !tbaa !30
  %260 = trunc i32 %259 to i16
  %261 = load ptr, ptr %4, align 8, !tbaa !9
  %262 = getelementptr inbounds nuw %struct.CnvExtData, ptr %261, i32 0, i32 9
  %263 = load i32, ptr %9, align 4, !tbaa !30
  %264 = sext i32 %263 to i64
  %265 = getelementptr inbounds [262144 x i16], ptr %262, i64 0, i64 %264
  store i16 %260, ptr %265, align 2, !tbaa !50
  %266 = load i32, ptr %6, align 4, !tbaa !30
  %267 = load ptr, ptr %4, align 8, !tbaa !9
  %268 = getelementptr inbounds nuw %struct.CnvExtData, ptr %267, i32 0, i32 10
  %269 = load i32, ptr %10, align 4, !tbaa !30
  %270 = sext i32 %269 to i64
  %271 = getelementptr inbounds [65536 x i32], ptr %268, i64 0, i64 %270
  store i32 %266, ptr %271, align 4, !tbaa !30
  br label %272

272:                                              ; preds = %258, %247
  store i32 0, ptr %14, align 4
  br label %273

273:                                              ; preds = %272, %17
  call void @llvm.lifetime.end.p0(i64 4, ptr %13) #9
  call void @llvm.lifetime.end.p0(i64 4, ptr %12) #9
  call void @llvm.lifetime.end.p0(i64 4, ptr %11) #9
  call void @llvm.lifetime.end.p0(i64 4, ptr %10) #9
  call void @llvm.lifetime.end.p0(i64 4, ptr %9) #9
  call void @llvm.lifetime.end.p0(i64 4, ptr %8) #9
  call void @llvm.lifetime.end.p0(i64 4, ptr %7) #9
  %274 = load i32, ptr %14, align 4
  switch i32 %274, label %276 [
    i32 0, label %275
    i32 1, label %275
  ]

275:                                              ; preds = %273, %273
  ret void

276:                                              ; preds = %273
  unreachable
}