; Function Attrs: nofree nounwind uwtable
define internal fastcc void @addFromUTrieEntry(ptr noundef captures(none) %0, i32 noundef %1, i32 noundef %2) unnamed_addr #9 {
  %4 = icmp eq i32 %2, 0
  br i1 %4, label %117, label %5

5:                                                ; preds = %3
  %6 = ashr i32 %1, 10
  %7 = getelementptr inbounds nuw i8, ptr %0, i64 917584
  %8 = load i32, ptr %7, align 8, !tbaa !53
  %.not = icmp slt i32 %6, %8
  br i1 %.not, label %11, label %9

9:                                                ; preds = %5
  %10 = add nsw i32 %6, 1
  store i32 %10, ptr %7, align 8, !tbaa !53
  br label %11

11:                                               ; preds = %9, %5
  %12 = lshr i32 %1, 4
  %13 = and i32 %12, 63
  %14 = getelementptr inbounds nuw i8, ptr %0, i64 80
  %15 = sext i32 %6 to i64
  %16 = getelementptr inbounds [1088 x i16], ptr %14, i64 0, i64 %15
  %17 = load i16, ptr %16, align 2, !tbaa !45
  %18 = icmp eq i16 %17, 0
  br i1 %18, label %19, label %39

19:                                               ; preds = %11
  %20 = getelementptr inbounds nuw i8, ptr %0, i64 917588
  %21 = load i32, ptr %20, align 4, !tbaa !48
  %22 = sub nsw i32 %21, %13
  %23 = getelementptr inbounds nuw i8, ptr %0, i64 2256
  %24 = sext i32 %21 to i64
  %25 = sext i32 %22 to i64
  %smin = tail call i32 @llvm.smin.i32(i32 %21, i32 %22)
  br label %26

26:                                               ; preds = %28, %19
  %indvars.iv = phi i64 [ %indvars.iv.next, %28 ], [ %24, %19 ]
  %27 = icmp sgt i64 %indvars.iv, %25
  br i1 %27, label %28, label %.critedge

28:                                               ; preds = %26
  %indvars.iv.next = add nsw i64 %indvars.iv, -1
  %29 = getelementptr inbounds [64448 x i16], ptr %23, i64 0, i64 %indvars.iv.next
  %30 = load i16, ptr %29, align 2, !tbaa !45
  %31 = icmp eq i16 %30, 0
  br i1 %31, label %26, label %.critedge.split.loop.exit99, !llvm.loop !74

.critedge.split.loop.exit99:                      ; preds = %28
  %32 = trunc nsw i64 %indvars.iv to i32
  br label %.critedge

.critedge:                                        ; preds = %26, %.critedge.split.loop.exit99
  %.0.lcssa = phi i32 [ %32, %.critedge.split.loop.exit99 ], [ %smin, %26 ]
  %33 = trunc i32 %.0.lcssa to i16
  store i16 %33, ptr %16, align 2, !tbaa !45
  %34 = add nsw i32 %.0.lcssa, 64
  store i32 %34, ptr %20, align 4, !tbaa !48
  %35 = icmp sgt i32 %.0.lcssa, 64384
  br i1 %35, label %36, label %39

36:                                               ; preds = %.critedge
  %37 = load ptr, ptr @stderr, align 8, !tbaa !28
  %38 = tail call i32 (ptr, ptr, ...) @fprintf(ptr noundef %37, ptr noundef nonnull @.str.11, i32 noundef %1) #18
  tail call void @exit(i32 noundef 7) #14
  unreachable

39:                                               ; preds = %.critedge, %11
  %40 = phi i16 [ %33, %.critedge ], [ %17, %11 ]
  %41 = zext i16 %40 to i32
  %42 = add nuw nsw i32 %13, %41
  %43 = and i32 %1, 15
  %44 = getelementptr inbounds nuw i8, ptr %0, i64 2256
  %45 = zext nneg i32 %42 to i64
  %46 = getelementptr inbounds nuw [64448 x i16], ptr %44, i64 0, i64 %45
  %47 = load i16, ptr %46, align 2, !tbaa !45
  %48 = icmp eq i16 %47, 0
  br i1 %48, label %49, label %72

49:                                               ; preds = %39
  %50 = getelementptr inbounds nuw i8, ptr %0, i64 917592
  %51 = load i32, ptr %50, align 8, !tbaa !49
  %52 = sub nsw i32 %51, %43
  %53 = getelementptr inbounds nuw i8, ptr %0, i64 131152
  %54 = sext i32 %51 to i64
  %55 = sext i32 %52 to i64
  %smin92 = tail call i32 @llvm.smin.i32(i32 %51, i32 %52)
  br label %56

56:                                               ; preds = %58, %49
  %indvars.iv90 = phi i64 [ %indvars.iv.next91, %58 ], [ %54, %49 ]
  %57 = icmp sgt i64 %indvars.iv90, %55
  br i1 %57, label %58, label %.critedge2

58:                                               ; preds = %56
  %indvars.iv.next91 = add nsw i64 %indvars.iv90, -1
  %59 = getelementptr inbounds [262144 x i16], ptr %53, i64 0, i64 %indvars.iv.next91
  %60 = load i16, ptr %59, align 2, !tbaa !45
  %61 = icmp eq i16 %60, 0
  br i1 %61, label %56, label %.critedge2.split.loop.exit101, !llvm.loop !75

.critedge2.split.loop.exit101:                    ; preds = %58
  %62 = trunc nsw i64 %indvars.iv90 to i32
  br label %.critedge2

.critedge2:                                       ; preds = %56, %.critedge2.split.loop.exit101
  %.1.lcssa = phi i32 [ %62, %.critedge2.split.loop.exit101 ], [ %smin92, %56 ]
  %63 = add nsw i32 %.1.lcssa, 3
  %64 = and i32 %63, -4
  %65 = lshr i32 %63, 2
  %66 = trunc i32 %65 to i16
  store i16 %66, ptr %46, align 2, !tbaa !45
  %67 = add nsw i32 %64, 16
  store i32 %67, ptr %50, align 8, !tbaa !49
  %68 = icmp sgt i32 %64, 262128
  br i1 %68, label %69, label %72

69:                                               ; preds = %.critedge2
  %70 = load ptr, ptr @stderr, align 8, !tbaa !28
  %71 = tail call i32 (ptr, ptr, ...) @fprintf(ptr noundef %70, ptr noundef nonnull @.str.12, i32 noundef %1) #18
  tail call void @exit(i32 noundef 7) #14
  unreachable

72:                                               ; preds = %.critedge2, %39
  %73 = phi i16 [ %66, %.critedge2 ], [ %47, %39 ]
  %74 = zext i16 %73 to i32
  %75 = shl nuw nsw i32 %74, 2
  %76 = add nuw nsw i32 %75, %43
  %77 = icmp eq i32 %2, -2147483647
  br i1 %77, label %78, label %101

78:                                               ; preds = %72
  %79 = getelementptr inbounds nuw i8, ptr %0, i64 131152
  %80 = zext nneg i32 %76 to i64
  %81 = getelementptr inbounds nuw [262144 x i16], ptr %79, i64 0, i64 %80
  store i16 1, ptr %81, align 2, !tbaa !45
  %82 = icmp eq i32 %43, 15
  br i1 %82, label %.preheader.preheader, label %117

.preheader.preheader:                             ; preds = %78
  %83 = zext i16 %73 to i64
  %84 = shl nuw nsw i64 %83, 2
  br label %.preheader

.preheader:                                       ; preds = %.preheader.preheader, %88
  %indvars.iv94 = phi i64 [ %84, %.preheader.preheader ], [ %indvars.iv.next95, %88 ]
  %85 = getelementptr inbounds nuw [262144 x i16], ptr %79, i64 0, i64 %indvars.iv94
  %86 = load i16, ptr %85, align 2, !tbaa !45
  %87 = icmp eq i16 %86, 1
  br i1 %87, label %88, label %.critedge4

88:                                               ; preds = %.preheader
  %indvars.iv.next95 = add nuw nsw i64 %indvars.iv94, 1
  %exitcond.not = icmp eq i64 %indvars.iv.next95, %80
  br i1 %exitcond.not, label %.critedge4.thread, label %.preheader, !llvm.loop !76

.critedge4:                                       ; preds = %.preheader
  %89 = trunc nuw nsw i64 %indvars.iv94 to i32
  %90 = icmp eq i32 %76, %89
  br i1 %90, label %.critedge4.thread, label %117

.critedge4.thread:                                ; preds = %88, %.critedge4
  %91 = getelementptr inbounds nuw i8, ptr %0, i64 917600
  %92 = load i16, ptr %91, align 8, !tbaa !77
  %.not87 = icmp eq i16 %92, 0
  br i1 %.not87, label %99, label %93

93:                                               ; preds = %.critedge4.thread
  store i16 %92, ptr %46, align 2, !tbaa !45
  %94 = getelementptr inbounds nuw i8, ptr %0, i64 917592
  %95 = load i32, ptr %94, align 8, !tbaa !49
  %96 = add nsw i32 %95, -16
  store i32 %96, ptr %94, align 8, !tbaa !49
  %97 = sext i32 %96 to i64
  %98 = getelementptr inbounds i16, ptr %79, i64 %97
  tail call void @llvm.memset.p0.i64(ptr noundef nonnull align 2 dereferenceable(32) %98, i8 0, i64 32, i1 false)
  br label %117

99:                                               ; preds = %.critedge4.thread
  %100 = load i16, ptr %46, align 2, !tbaa !45
  store i16 %100, ptr %91, align 8, !tbaa !77
  br label %117

101:                                              ; preds = %72
  %102 = getelementptr inbounds nuw i8, ptr %0, i64 917596
  %103 = load i32, ptr %102, align 4, !tbaa !50
  %104 = add nsw i32 %103, 1
  store i32 %104, ptr %102, align 4, !tbaa !50
  %105 = icmp sgt i32 %103, 65535
  br i1 %105, label %106, label %109

106:                                              ; preds = %101
  %107 = load ptr, ptr @stderr, align 8, !tbaa !28
  %108 = tail call i32 (ptr, ptr, ...) @fprintf(ptr noundef %107, ptr noundef nonnull @.str.13, i32 noundef %1) #18
  tail call void @exit(i32 noundef 7) #14
  unreachable

109:                                              ; preds = %101
  %110 = trunc i32 %103 to i16
  %111 = getelementptr inbounds nuw i8, ptr %0, i64 131152
  %112 = zext nneg i32 %76 to i64
  %113 = getelementptr inbounds nuw [262144 x i16], ptr %111, i64 0, i64 %112
  store i16 %110, ptr %113, align 2, !tbaa !45
  %114 = getelementptr inbounds nuw i8, ptr %0, i64 655440
  %115 = sext i32 %103 to i64
  %116 = getelementptr inbounds [65536 x i32], ptr %114, i64 0, i64 %115
  store i32 %2, ptr %116, align 4, !tbaa !35
  br label %117

117:                                              ; preds = %109, %.critedge4, %99, %93, %78, %3
  ret void
}